target datalayout = "e-m:e-p270:32:32-p271:32:32-p272:64:64-i64:64-i128:128-f80:128-n8:16:32:64-S128"
target triple = "x86_64-unknown-linux-gnu"

%"class.v8::Local" = type { %"class.v8::LocalBase" }
%"class.v8::LocalBase" = type { %"class.v8::IndirectHandleBase" }
%"class.v8::IndirectHandleBase" = type { ptr }
%"class.node::StreamListener" = type { ptr, ptr, ptr }

; Function Attrs: mustprogress nounwind uwtable
define linkonce_odr dso_local noundef ptr @_ZNK4node14StreamListener6streamEv(ptr noundef nonnull align 8 dereferenceable(24) %this) #4 comdat align 2 {
entry:
  %this.addr = alloca ptr, align 8
  store ptr %this, ptr %this.addr, align 8
  %this1 = load ptr, ptr %this.addr, align 8
  %stream_ = getelementptr inbounds %"class.node::StreamListener", ptr %this1, i32 0, i32 1
  %0 = load ptr, ptr %stream_, align 8
  ret ptr %0
}

; Function Attrs: mustprogress nounwind uwtable
define linkonce_odr dso_local noundef ptr @_ZNK4node6crypto7TLSWrap17underlying_streamEv(ptr noundef nonnull align 8 dereferenceable(457) %this) #4 comdat align 2 {
entry:
  %this.addr = alloca ptr, align 8
  store ptr %this, ptr %this.addr, align 8
  %this1 = load ptr, ptr %this.addr, align 8
  %add.ptr = getelementptr inbounds i8, ptr %this1, i64 120
  %call = call noundef ptr @_ZNK4node14StreamListener6streamEv(ptr noundef nonnull align 8 dereferenceable(24) %add.ptr)
  ret ptr %call
}

; Function Attrs: mustprogress nounwind uwtable
define dso_local noundef ptr @_ZN4node6crypto7TLSWrap18CreateShutdownWrapEN2v85LocalINS2_6ObjectEEE(ptr noundef nonnull align 8 dereferenceable(457) %this, ptr %req_wrap_object.coerce) unnamed_addr #4 align 2 {
entry:
  %req_wrap_object = alloca %"class.v8::Local", align 8
  %this.addr = alloca ptr, align 8
  %agg.tmp = alloca %"class.v8::Local", align 8
  %coerce.dive = getelementptr inbounds %"class.v8::Local", ptr %req_wrap_object, i32 0, i32 0
  %coerce.dive1 = getelementptr inbounds %"class.v8::LocalBase", ptr %coerce.dive, i32 0, i32 0
  %coerce.dive2 = getelementptr inbounds %"class.v8::IndirectHandleBase", ptr %coerce.dive1, i32 0, i32 0
  store ptr %req_wrap_object.coerce, ptr %coerce.dive2, align 8
  store ptr %this, ptr %this.addr, align 8
  %this3 = load ptr, ptr %this.addr, align 8
  %call = call noundef ptr @_ZNK4node6crypto7TLSWrap17underlying_streamEv(ptr noundef nonnull align 8 dereferenceable(457) %this3)
  call void @llvm.memcpy.p0.p0.i64(ptr align 8 %agg.tmp, ptr align 8 %req_wrap_object, i64 8, i1 false)
  %coerce.dive4 = getelementptr inbounds %"class.v8::Local", ptr %agg.tmp, i32 0, i32 0
  %coerce.dive5 = getelementptr inbounds %"class.v8::LocalBase", ptr %coerce.dive4, i32 0, i32 0
  %coerce.dive6 = getelementptr inbounds %"class.v8::IndirectHandleBase", ptr %coerce.dive5, i32 0, i32 0
  %0 = load ptr, ptr %coerce.dive6, align 8
  %vtable = load ptr, ptr %call, align 8
  %vfn = getelementptr inbounds ptr, ptr %vtable, i64 14
  %1 = load ptr, ptr %vfn, align 8
  %call7 = call noundef ptr %1(ptr noundef nonnull align 8 dereferenceable(64) %call, ptr %0)
  ret ptr %call7
}

; Function Attrs: nounwind uwtable
define dso_local noundef ptr @_ZThn56_N4node6crypto7TLSWrap18CreateShutdownWrapEN2v85LocalINS2_6ObjectEEE(ptr noundef %this, ptr %req_wrap_object.coerce) unnamed_addr #0 align 2 {
entry:
  %req_wrap_object = alloca %"class.v8::Local", align 8
  %this.addr = alloca ptr, align 8
  %coerce.dive = getelementptr inbounds %"class.v8::Local", ptr %req_wrap_object, i32 0, i32 0
  %coerce.dive1 = getelementptr inbounds %"class.v8::LocalBase", ptr %coerce.dive, i32 0, i32 0
  %coerce.dive2 = getelementptr inbounds %"class.v8::IndirectHandleBase", ptr %coerce.dive1, i32 0, i32 0
  store ptr %req_wrap_object.coerce, ptr %coerce.dive2, align 8
  store ptr %this, ptr %this.addr, align 8
  %this3 = load ptr, ptr %this.addr, align 8
  %0 = getelementptr inbounds i8, ptr %this3, i64 -56
  %coerce.dive4 = getelementptr inbounds %"class.v8::Local", ptr %req_wrap_object, i32 0, i32 0
  %coerce.dive5 = getelementptr inbounds %"class.v8::LocalBase", ptr %coerce.dive4, i32 0, i32 0
  %coerce.dive6 = getelementptr inbounds %"class.v8::IndirectHandleBase", ptr %coerce.dive5, i32 0, i32 0
  %1 = load ptr, ptr %coerce.dive6, align 8
  %call = tail call noundef ptr @_ZN4node6crypto7TLSWrap18CreateShutdownWrapEN2v85LocalINS2_6ObjectEEE(ptr noundef nonnull align 8 dereferenceable(457) %0, ptr %1)
  ret ptr %call
}