; Function Attrs: nounwind uwtable
define dso_local noundef ptr @_ZThn56_N4node6crypto7TLSWrap18CreateShutdownWrapEN2v85LocalINS2_6ObjectEEE(ptr nocapture noundef readonly %this, ptr %req_wrap_object.coerce) unnamed_addr #6 align 2 {
entry:
  %stream_.i.i.i = getelementptr inbounds i8, ptr %this, i64 72
  %0 = load ptr, ptr %stream_.i.i.i, align 8
  %vtable.i = load ptr, ptr %0, align 8
  %vfn.i = getelementptr inbounds i8, ptr %vtable.i, i64 112
  %1 = load ptr, ptr %vfn.i, align 8
  %call7.i = tail call noundef ptr %1(ptr noundef nonnull align 8 dereferenceable(64) %0, ptr %req_wrap_object.coerce) #23
  ret ptr %call7.i
}